; Function Attrs: mustprogress uwtable
define void @_ZN4dmlc2io14InputSplitBase8StripEndENSt7__cxx1112basic_stringIcSt11char_traitsIcESaIcEEEc(ptr dead_on_unwind noalias writable sret(%"class.std::__cxx11::basic_string") align 8 %0, ptr noundef nonnull readnone align 8 captures(none) dereferenceable(200) %1, ptr noundef %2, i8 noundef signext %3) local_unnamed_addr #3 align 2 personality ptr @__gxx_personality_v0 {
  %5 = getelementptr inbounds nuw i8, ptr %2, i64 8
  %6 = load i64, ptr %5, align 8, !tbaa !35
  %.not2 = icmp eq i64 %6, 0
  br i1 %.not2, label %.critedge, label %.lr.ph

.lr.ph:                                           ; preds = %4, %13
  %7 = phi i64 [ %14, %13 ], [ %6, %4 ]
  %8 = add i64 %7, -1
  %9 = load ptr, ptr %2, align 8, !tbaa !33
  %10 = getelementptr inbounds nuw i8, ptr %9, i64 %8
  %11 = load i8, ptr %10, align 1, !tbaa !34
  %12 = icmp eq i8 %11, %3
  br i1 %12, label %13, label %.critedge

13:                                               ; preds = %.lr.ph
  tail call void @_ZNSt7__cxx1112basic_stringIcSt11char_traitsIcESaIcEE6resizeEmc(ptr noundef nonnull align 8 dereferenceable(32) %2, i64 noundef %8, i8 noundef signext 0)
  %14 = load i64, ptr %5, align 8, !tbaa !35
  %.not = icmp eq i64 %14, 0
  br i1 %.not, label %.critedge, label %.lr.ph, !llvm.loop !75

.critedge:                                        ; preds = %.lr.ph, %13, %4
  %.lcssa = phi i64 [ 0, %4 ], [ 0, %13 ], [ %7, %.lr.ph ]
  %15 = getelementptr inbounds nuw i8, ptr %0, i64 16
  store ptr %15, ptr %0, align 8, !tbaa !31
  %16 = load ptr, ptr %2, align 8, !tbaa !33
  %17 = getelementptr inbounds nuw i8, ptr %2, i64 16
  %18 = icmp eq ptr %16, %17
  br i1 %18, label %19, label %_ZNKSt7__cxx1112basic_stringIcSt11char_traitsIcESaIcEE11_M_is_localEv.exit.i

19:                                               ; preds = %.critedge
  %20 = icmp ult i64 %.lcssa, 16
  tail call void @llvm.assume(i1 %20)
  %21 = add nuw nsw i64 %.lcssa, 1
  tail call void @llvm.memcpy.p0.p0.i64(ptr noundef nonnull align 8 dereferenceable(1) %15, ptr noundef nonnull align 8 dereferenceable(1) %17, i64 %21, i1 false)
  br label %_ZNSt7__cxx1112basic_stringIcSt11char_traitsIcESaIcEEC2EOS4_.exit

_ZNKSt7__cxx1112basic_stringIcSt11char_traitsIcESaIcEE11_M_is_localEv.exit.i: ; preds = %.critedge
  store ptr %16, ptr %0, align 8, !tbaa !33
  %22 = load i64, ptr %17, align 8, !tbaa !34
  store i64 %22, ptr %15, align 8, !tbaa !34
  br label %_ZNSt7__cxx1112basic_stringIcSt11char_traitsIcESaIcEEC2EOS4_.exit

_ZNSt7__cxx1112basic_stringIcSt11char_traitsIcESaIcEEC2EOS4_.exit: ; preds = %19, %_ZNKSt7__cxx1112basic_stringIcSt11char_traitsIcESaIcEE11_M_is_localEv.exit.i
  %23 = getelementptr inbounds nuw i8, ptr %0, i64 8
  store i64 %.lcssa, ptr %23, align 8, !tbaa !35
  store ptr %17, ptr %2, align 8, !tbaa !33
  store i64 0, ptr %5, align 8, !tbaa !35
  store i8 0, ptr %17, align 1, !tbaa !34
  ret void
}